target datalayout = "e-m:e-p270:32:32-p271:32:32-p272:64:64-i64:64-i128:128-f80:128-n8:16:32:64-S128"
target triple = "x86_64-pc-linux-gnu"

%"class.cv::ximgproc::DTFilterCPU" = type <{ %"class.cv::ximgproc::DTFilter", i32, i32, i32, float, float, i8, [3 x i8], i32, [4 x i8], %"class.cv::Mat", %"class.cv::Mat", %"class.cv::Mat", %"class.cv::Mat", %"class.cv::Mat", %"class.cv::Mat", %"class.cv::Mat", %"class.cv::Mat", i32, [4 x i8] }>
%"class.cv::ximgproc::DTFilter" = type { %"class.cv::Algorithm" }
%"class.cv::Algorithm" = type { ptr }
%"class.cv::Mat" = type { i32, i32, i32, i32, ptr, ptr, ptr, ptr, ptr, ptr, %"struct.cv::MatSize", %"struct.cv::MatStep" }
%"struct.cv::MatSize" = type { ptr }
%"struct.cv::MatStep" = type { ptr, [2 x i64] }

; Function Attrs: mustprogress uwtable
define hidden void @_ZN2cv8ximgproc11DTFilterCPU7releaseEv(ptr noundef nonnull align 8 dereferenceable(812) %0) #4 align 2 {
  %2 = alloca ptr, align 8
  store ptr %0, ptr %2, align 8, !tbaa !12
  %3 = load ptr, ptr %2, align 8
  %4 = getelementptr inbounds nuw %"class.cv::ximgproc::DTFilterCPU", ptr %3, i32 0, i32 3
  %5 = load i32, ptr %4, align 8, !tbaa !16
  %6 = icmp eq i32 %5, -1
  br i1 %6, label %7, label %8

7:                                                ; preds = %1
  br label %17

8:                                                ; preds = %1
  %9 = getelementptr inbounds nuw %"class.cv::ximgproc::DTFilterCPU", ptr %3, i32 0, i32 10
  call void @_ZN2cv3Mat7releaseEv(ptr noundef nonnull align 8 dereferenceable(96) %9)
  %10 = getelementptr inbounds nuw %"class.cv::ximgproc::DTFilterCPU", ptr %3, i32 0, i32 11
  call void @_ZN2cv3Mat7releaseEv(ptr noundef nonnull align 8 dereferenceable(96) %10)
  %11 = getelementptr inbounds nuw %"class.cv::ximgproc::DTFilterCPU", ptr %3, i32 0, i32 12
  call void @_ZN2cv3Mat7releaseEv(ptr noundef nonnull align 8 dereferenceable(96) %11)
  %12 = getelementptr inbounds nuw %"class.cv::ximgproc::DTFilterCPU", ptr %3, i32 0, i32 13
  call void @_ZN2cv3Mat7releaseEv(ptr noundef nonnull align 8 dereferenceable(96) %12)
  %13 = getelementptr inbounds nuw %"class.cv::ximgproc::DTFilterCPU", ptr %3, i32 0, i32 14
  call void @_ZN2cv3Mat7releaseEv(ptr noundef nonnull align 8 dereferenceable(96) %13)
  %14 = getelementptr inbounds nuw %"class.cv::ximgproc::DTFilterCPU", ptr %3, i32 0, i32 15
  call void @_ZN2cv3Mat7releaseEv(ptr noundef nonnull align 8 dereferenceable(96) %14)
  %15 = getelementptr inbounds nuw %"class.cv::ximgproc::DTFilterCPU", ptr %3, i32 0, i32 16
  call void @_ZN2cv3Mat7releaseEv(ptr noundef nonnull align 8 dereferenceable(96) %15)
  %16 = getelementptr inbounds nuw %"class.cv::ximgproc::DTFilterCPU", ptr %3, i32 0, i32 17
  call void @_ZN2cv3Mat7releaseEv(ptr noundef nonnull align 8 dereferenceable(96) %16)
  br label %17

17:                                               ; preds = %8, %7
  ret void
}