; Function Attrs: mustprogress uwtable
define hidden void @_ZN2cv8ximgproc11DTFilterCPU7releaseEv(ptr noundef nonnull align 8 dereferenceable(812) %0) local_unnamed_addr #3 align 2 {
  %2 = getelementptr inbounds nuw i8, ptr %0, i64 16
  %3 = load i32, ptr %2, align 8, !tbaa !6
  %4 = icmp eq i32 %3, -1
  br i1 %4, label %14, label %5

5:                                                ; preds = %1
  %6 = getelementptr inbounds nuw i8, ptr %0, i64 40
  tail call void @_ZN2cv3Mat7releaseEv(ptr noundef nonnull align 8 dereferenceable(96) %6)
  %7 = getelementptr inbounds nuw i8, ptr %0, i64 136
  tail call void @_ZN2cv3Mat7releaseEv(ptr noundef nonnull align 8 dereferenceable(96) %7)
  %8 = getelementptr inbounds nuw i8, ptr %0, i64 232
  tail call void @_ZN2cv3Mat7releaseEv(ptr noundef nonnull align 8 dereferenceable(96) %8)
  %9 = getelementptr inbounds nuw i8, ptr %0, i64 328
  tail call void @_ZN2cv3Mat7releaseEv(ptr noundef nonnull align 8 dereferenceable(96) %9)
  %10 = getelementptr inbounds nuw i8, ptr %0, i64 424
  tail call void @_ZN2cv3Mat7releaseEv(ptr noundef nonnull align 8 dereferenceable(96) %10)
  %11 = getelementptr inbounds nuw i8, ptr %0, i64 520
  tail call void @_ZN2cv3Mat7releaseEv(ptr noundef nonnull align 8 dereferenceable(96) %11)
  %12 = getelementptr inbounds nuw i8, ptr %0, i64 616
  tail call void @_ZN2cv3Mat7releaseEv(ptr noundef nonnull align 8 dereferenceable(96) %12)
  %13 = getelementptr inbounds nuw i8, ptr %0, i64 712
  tail call void @_ZN2cv3Mat7releaseEv(ptr noundef nonnull align 8 dereferenceable(96) %13)
  br label %14

14:                                               ; preds = %1, %5
  ret void
}